target datalayout = "e-m:e-p270:32:32-p271:32:32-p272:64:64-i64:64-i128:128-f80:128-n8:16:32:64-S128"
target triple = "x86_64-pc-linux-gnu"

%"class.cv::Rect_" = type { i32, i32, i32, i32 }
%"class.cv::Mat" = type { i32, i32, i32, i32, ptr, ptr, ptr, ptr, ptr, ptr, %"struct.cv::MatSize", %"struct.cv::MatStep" }
%"struct.cv::MatSize" = type { ptr }
%"struct.cv::MatStep" = type { ptr, [2 x i64] }
%"class.cv::ximgproc::DisparityWLSFilterImpl" = type <{ %"class.cv::ximgproc::DisparityWLSFilter", i32, i32, i32, i32, %"class.cv::Rect_", %"class.cv::Rect_", i32, i8, [3 x i8], %"class.cv::Mat", double, double, i32, i32, float, float, i32, [4 x i8] }>
%"class.cv::ximgproc::DisparityWLSFilter" = type { %"class.cv::ximgproc::DisparityFilter" }
%"class.cv::ximgproc::DisparityFilter" = type { %"class.cv::Algorithm" }
%"class.cv::Algorithm" = type { ptr }
%"class.cv::Range" = type { i32, i32 }
%"class.cv::ParallelLoopBody" = type { ptr }
%"struct.cv::ximgproc::DisparityWLSFilterImpl::ComputeDepthDisc_ParBody" = type { %"class.cv::ParallelLoopBody", ptr, ptr, ptr, ptr, i32, i32 }

; Function Attrs: inlinehint mustprogress nounwind uwtable
define linkonce_odr noundef nonnull align 4 dereferenceable(4) ptr @_ZSt3maxIfERKT_S2_S2_(ptr noundef nonnull align 4 dereferenceable(4) %0, ptr noundef nonnull align 4 dereferenceable(4) %1) #6 comdat {
  %3 = alloca ptr, align 8
  %4 = alloca ptr, align 8
  %5 = alloca ptr, align 8
  store ptr %0, ptr %4, align 8, !tbaa !131
  store ptr %1, ptr %5, align 8, !tbaa !131
  %6 = load ptr, ptr %4, align 8, !tbaa !131
  %7 = load float, ptr %6, align 4, !tbaa !104
  %8 = load ptr, ptr %5, align 8, !tbaa !131
  %9 = load float, ptr %8, align 4, !tbaa !104
  %10 = fcmp olt float %7, %9
  br i1 %10, label %11, label %13

11:                                               ; preds = %2
  %12 = load ptr, ptr %5, align 8, !tbaa !131
  store ptr %12, ptr %3, align 8
  br label %15

13:                                               ; preds = %2
  %14 = load ptr, ptr %4, align 8, !tbaa !131
  store ptr %14, ptr %3, align 8
  br label %15

15:                                               ; preds = %13, %11
  %16 = load ptr, ptr %3, align 8
  ret ptr %16
}

; Function Attrs: inlinehint mustprogress nounwind uwtable
define linkonce_odr hidden noundef ptr @_ZN2cv3Mat3ptrEi(ptr noundef nonnull align 8 dereferenceable(96) %0, i32 noundef %1) #6 comdat align 2 {
  %3 = alloca ptr, align 8
  %4 = alloca i32, align 4
  store ptr %0, ptr %3, align 8, !tbaa !50
  store i32 %1, ptr %4, align 4, !tbaa !12
  %5 = load ptr, ptr %3, align 8
  %6 = getelementptr inbounds nuw %"class.cv::Mat", ptr %5, i32 0, i32 4
  %7 = load ptr, ptr %6, align 8, !tbaa !141
  %8 = getelementptr inbounds nuw %"class.cv::Mat", ptr %5, i32 0, i32 11
  %9 = getelementptr inbounds nuw %"struct.cv::MatStep", ptr %8, i32 0, i32 0
  %10 = load ptr, ptr %9, align 8, !tbaa !142
  %11 = getelementptr inbounds i64, ptr %10, i64 0
  %12 = load i64, ptr %11, align 8, !tbaa !143
  %13 = load i32, ptr %4, align 4, !tbaa !12
  %14 = sext i32 %13 to i64
  %15 = mul i64 %12, %14
  %16 = getelementptr inbounds nuw i8, ptr %7, i64 %15
  ret ptr %16
}

; Function Attrs: inlinehint mustprogress nounwind uwtable
define linkonce_odr noundef nonnull align 4 dereferenceable(4) ptr @_ZSt3minIiERKT_S2_S2_(ptr noundef nonnull align 4 dereferenceable(4) %0, ptr noundef nonnull align 4 dereferenceable(4) %1) #6 comdat {
  %3 = alloca ptr, align 8
  %4 = alloca ptr, align 8
  %5 = alloca ptr, align 8
  store ptr %0, ptr %4, align 8, !tbaa !140
  store ptr %1, ptr %5, align 8, !tbaa !140
  %6 = load ptr, ptr %5, align 8, !tbaa !140
  %7 = load i32, ptr %6, align 4, !tbaa !12
  %8 = load ptr, ptr %4, align 8, !tbaa !140
  %9 = load i32, ptr %8, align 4, !tbaa !12
  %10 = icmp slt i32 %7, %9
  br i1 %10, label %11, label %13

11:                                               ; preds = %2
  %12 = load ptr, ptr %5, align 8, !tbaa !140
  store ptr %12, ptr %3, align 8
  br label %15

13:                                               ; preds = %2
  %14 = load ptr, ptr %4, align 8, !tbaa !140
  store ptr %14, ptr %3, align 8
  br label %15

15:                                               ; preds = %13, %11
  %16 = load ptr, ptr %3, align 8
  ret ptr %16
}

; Function Attrs: mustprogress uwtable
define hidden void @_ZNK2cv8ximgproc22DisparityWLSFilterImpl24ComputeDepthDisc_ParBodyclERKNS_5RangeE(ptr noundef nonnull align 8 dereferenceable(48) %0, ptr noundef nonnull align 4 dereferenceable(8) %1) unnamed_addr #4 align 2 {
  %3 = alloca ptr, align 8
  %4 = alloca ptr, align 8
  %5 = alloca ptr, align 8
  %6 = alloca ptr, align 8
  %7 = alloca ptr, align 8
  %8 = alloca float, align 4
  %9 = alloca i32, align 4
  %10 = alloca i32, align 4
  %11 = alloca i32, align 4
  %12 = alloca i32, align 4
  %13 = alloca i32, align 4
  %14 = alloca i32, align 4
  %15 = alloca float, align 4
  %16 = alloca i32, align 4
  %17 = alloca i32, align 4
  %18 = alloca i32, align 4
  %19 = alloca float, align 4
  %20 = alloca float, align 4
  store ptr %0, ptr %3, align 8, !tbaa !145
  store ptr %1, ptr %4, align 8, !tbaa !63
  %21 = load ptr, ptr %3, align 8
  call void @llvm.lifetime.start.p0(i64 8, ptr %5) #3
  call void @llvm.lifetime.start.p0(i64 8, ptr %6) #3
  call void @llvm.lifetime.start.p0(i64 8, ptr %7) #3
  call void @llvm.lifetime.start.p0(i64 4, ptr %8) #3
  call void @llvm.lifetime.start.p0(i64 4, ptr %9) #3
  %22 = getelementptr inbounds nuw %"struct.cv::ximgproc::DisparityWLSFilterImpl::ComputeDepthDisc_ParBody", ptr %21, i32 0, i32 2
  %23 = load ptr, ptr %22, align 8, !tbaa !149
  %24 = getelementptr inbounds nuw %"class.cv::Mat", ptr %23, i32 0, i32 2
  %25 = load i32, ptr %24, align 8, !tbaa !53
  store i32 %25, ptr %9, align 4, !tbaa !12
  call void @llvm.lifetime.start.p0(i64 4, ptr %10) #3
  %26 = getelementptr inbounds nuw %"struct.cv::ximgproc::DisparityWLSFilterImpl::ComputeDepthDisc_ParBody", ptr %21, i32 0, i32 2
  %27 = load ptr, ptr %26, align 8, !tbaa !149
  %28 = getelementptr inbounds nuw %"class.cv::Mat", ptr %27, i32 0, i32 3
  %29 = load i32, ptr %28, align 4, !tbaa !54
  store i32 %29, ptr %10, align 4, !tbaa !12
  call void @llvm.lifetime.start.p0(i64 4, ptr %11) #3
  call void @llvm.lifetime.start.p0(i64 4, ptr %12) #3
  %30 = load ptr, ptr %4, align 8, !tbaa !63
  %31 = getelementptr inbounds nuw %"class.cv::Range", ptr %30, i32 0, i32 0
  %32 = load i32, ptr %31, align 4, !tbaa !65
  %33 = getelementptr inbounds nuw %"struct.cv::ximgproc::DisparityWLSFilterImpl::ComputeDepthDisc_ParBody", ptr %21, i32 0, i32 6
  %34 = load i32, ptr %33, align 4, !tbaa !153
  %35 = mul nsw i32 %32, %34
  store i32 %35, ptr %12, align 4, !tbaa !12
  %36 = call noundef nonnull align 4 dereferenceable(4) ptr @_ZSt3minIiERKT_S2_S2_(ptr noundef nonnull align 4 dereferenceable(4) %12, ptr noundef nonnull align 4 dereferenceable(4) %9)
  %37 = load i32, ptr %36, align 4, !tbaa !12
  call void @llvm.lifetime.end.p0(i64 4, ptr %12) #3
  store i32 %37, ptr %11, align 4, !tbaa !12
  call void @llvm.lifetime.start.p0(i64 4, ptr %13) #3
  call void @llvm.lifetime.start.p0(i64 4, ptr %14) #3
  %38 = load ptr, ptr %4, align 8, !tbaa !63
  %39 = getelementptr inbounds nuw %"class.cv::Range", ptr %38, i32 0, i32 1
  %40 = load i32, ptr %39, align 4, !tbaa !67
  %41 = getelementptr inbounds nuw %"struct.cv::ximgproc::DisparityWLSFilterImpl::ComputeDepthDisc_ParBody", ptr %21, i32 0, i32 6
  %42 = load i32, ptr %41, align 4, !tbaa !153
  %43 = mul nsw i32 %40, %42
  store i32 %43, ptr %14, align 4, !tbaa !12
  %44 = call noundef nonnull align 4 dereferenceable(4) ptr @_ZSt3minIiERKT_S2_S2_(ptr noundef nonnull align 4 dereferenceable(4) %14, ptr noundef nonnull align 4 dereferenceable(4) %9)
  %45 = load i32, ptr %44, align 4, !tbaa !12
  call void @llvm.lifetime.end.p0(i64 4, ptr %14) #3
  store i32 %45, ptr %13, align 4, !tbaa !12
  call void @llvm.lifetime.start.p0(i64 4, ptr %15) #3
  %46 = getelementptr inbounds nuw %"struct.cv::ximgproc::DisparityWLSFilterImpl::ComputeDepthDisc_ParBody", ptr %21, i32 0, i32 1
  %47 = load ptr, ptr %46, align 8, !tbaa !147
  %48 = getelementptr inbounds nuw %"class.cv::ximgproc::DisparityWLSFilterImpl", ptr %47, i32 0, i32 15
  %49 = load float, ptr %48, align 8, !tbaa !41
  %50 = getelementptr inbounds nuw %"struct.cv::ximgproc::DisparityWLSFilterImpl::ComputeDepthDisc_ParBody", ptr %21, i32 0, i32 1
  %51 = load ptr, ptr %50, align 8, !tbaa !147
  %52 = getelementptr inbounds nuw %"class.cv::ximgproc::DisparityWLSFilterImpl", ptr %51, i32 0, i32 16
  %53 = load float, ptr %52, align 4, !tbaa !42
  %54 = getelementptr inbounds nuw %"struct.cv::ximgproc::DisparityWLSFilterImpl::ComputeDepthDisc_ParBody", ptr %21, i32 0, i32 1
  %55 = load ptr, ptr %54, align 8, !tbaa !147
  %56 = getelementptr inbounds nuw %"class.cv::ximgproc::DisparityWLSFilterImpl", ptr %55, i32 0, i32 16
  %57 = load float, ptr %56, align 4, !tbaa !42
  %58 = fmul float %53, %57
  %59 = fdiv float %49, %58
  store float %59, ptr %15, align 4, !tbaa !104
  call void @llvm.lifetime.start.p0(i64 4, ptr %16) #3
  %60 = load i32, ptr %11, align 4, !tbaa !12
  store i32 %60, ptr %16, align 4, !tbaa !12
  br label %61

61:                                               ; preds = %116, %2
  %62 = load i32, ptr %16, align 4, !tbaa !12
  %63 = load i32, ptr %13, align 4, !tbaa !12
  %64 = icmp slt i32 %62, %63
  br i1 %64, label %66, label %65

65:                                               ; preds = %61
  store i32 2, ptr %17, align 4
  call void @llvm.lifetime.end.p0(i64 4, ptr %16) #3
  br label %119

66:                                               ; preds = %61
  %67 = getelementptr inbounds nuw %"struct.cv::ximgproc::DisparityWLSFilterImpl::ComputeDepthDisc_ParBody", ptr %21, i32 0, i32 2
  %68 = load ptr, ptr %67, align 8, !tbaa !149
  %69 = load i32, ptr %16, align 4, !tbaa !12
  %70 = call noundef ptr @_ZN2cv3Mat3ptrEi(ptr noundef nonnull align 8 dereferenceable(96) %68, i32 noundef %69)
  store ptr %70, ptr %5, align 8, !tbaa !131
  %71 = getelementptr inbounds nuw %"struct.cv::ximgproc::DisparityWLSFilterImpl::ComputeDepthDisc_ParBody", ptr %21, i32 0, i32 3
  %72 = load ptr, ptr %71, align 8, !tbaa !150
  %73 = load i32, ptr %16, align 4, !tbaa !12
  %74 = call noundef ptr @_ZN2cv3Mat3ptrEi(ptr noundef nonnull align 8 dereferenceable(96) %72, i32 noundef %73)
  store ptr %74, ptr %6, align 8, !tbaa !131
  %75 = getelementptr inbounds nuw %"struct.cv::ximgproc::DisparityWLSFilterImpl::ComputeDepthDisc_ParBody", ptr %21, i32 0, i32 4
  %76 = load ptr, ptr %75, align 8, !tbaa !151
  %77 = load i32, ptr %16, align 4, !tbaa !12
  %78 = call noundef ptr @_ZN2cv3Mat3ptrEi(ptr noundef nonnull align 8 dereferenceable(96) %76, i32 noundef %77)
  store ptr %78, ptr %7, align 8, !tbaa !131
  call void @llvm.lifetime.start.p0(i64 4, ptr %18) #3
  store i32 0, ptr %18, align 4, !tbaa !12
  br label %79

79:                                               ; preds = %112, %66
  %80 = load i32, ptr %18, align 4, !tbaa !12
  %81 = load i32, ptr %10, align 4, !tbaa !12
  %82 = icmp slt i32 %80, %81
  br i1 %82, label %84, label %83

83:                                               ; preds = %79
  store i32 5, ptr %17, align 4
  call void @llvm.lifetime.end.p0(i64 4, ptr %18) #3
  br label %115

84:                                               ; preds = %79
  %85 = load ptr, ptr %6, align 8, !tbaa !131
  %86 = load i32, ptr %18, align 4, !tbaa !12
  %87 = sext i32 %86 to i64
  %88 = getelementptr inbounds float, ptr %85, i64 %87
  %89 = load float, ptr %88, align 4, !tbaa !104
  %90 = load ptr, ptr %5, align 8, !tbaa !131
  %91 = load i32, ptr %18, align 4, !tbaa !12
  %92 = sext i32 %91 to i64
  %93 = getelementptr inbounds float, ptr %90, i64 %92
  %94 = load float, ptr %93, align 4, !tbaa !104
  %95 = load ptr, ptr %5, align 8, !tbaa !131
  %96 = load i32, ptr %18, align 4, !tbaa !12
  %97 = sext i32 %96 to i64
  %98 = getelementptr inbounds float, ptr %95, i64 %97
  %99 = load float, ptr %98, align 4, !tbaa !104
  %100 = fneg float %94
  %101 = call float @llvm.fmuladd.f32(float %100, float %99, float %89)
  store float %101, ptr %8, align 4, !tbaa !104
  call void @llvm.lifetime.start.p0(i64 4, ptr %19) #3
  %102 = load float, ptr %15, align 4, !tbaa !104
  %103 = load float, ptr %8, align 4, !tbaa !104
  %104 = fneg float %102
  %105 = call float @llvm.fmuladd.f32(float %104, float %103, float 1.000000e+00)
  store float %105, ptr %19, align 4, !tbaa !104
  call void @llvm.lifetime.start.p0(i64 4, ptr %20) #3
  store float 0.000000e+00, ptr %20, align 4, !tbaa !104
  %106 = call noundef nonnull align 4 dereferenceable(4) ptr @_ZSt3maxIfERKT_S2_S2_(ptr noundef nonnull align 4 dereferenceable(4) %19, ptr noundef nonnull align 4 dereferenceable(4) %20)
  %107 = load float, ptr %106, align 4, !tbaa !104
  %108 = load ptr, ptr %7, align 8, !tbaa !131
  %109 = load i32, ptr %18, align 4, !tbaa !12
  %110 = sext i32 %109 to i64
  %111 = getelementptr inbounds float, ptr %108, i64 %110
  store float %107, ptr %111, align 4, !tbaa !104
  call void @llvm.lifetime.end.p0(i64 4, ptr %20) #3
  call void @llvm.lifetime.end.p0(i64 4, ptr %19) #3
  br label %112

112:                                              ; preds = %84
  %113 = load i32, ptr %18, align 4, !tbaa !12
  %114 = add nsw i32 %113, 1
  store i32 %114, ptr %18, align 4, !tbaa !12
  br label %79, !llvm.loop !154

115:                                              ; preds = %83
  br label %116

116:                                              ; preds = %115
  %117 = load i32, ptr %16, align 4, !tbaa !12
  %118 = add nsw i32 %117, 1
  store i32 %118, ptr %16, align 4, !tbaa !12
  br label %61, !llvm.loop !155

119:                                              ; preds = %65
  call void @llvm.lifetime.end.p0(i64 4, ptr %15) #3
  call void @llvm.lifetime.end.p0(i64 4, ptr %13) #3
  call void @llvm.lifetime.end.p0(i64 4, ptr %11) #3
  call void @llvm.lifetime.end.p0(i64 4, ptr %10) #3
  call void @llvm.lifetime.end.p0(i64 4, ptr %9) #3
  call void @llvm.lifetime.end.p0(i64 4, ptr %8) #3
  call void @llvm.lifetime.end.p0(i64 8, ptr %7) #3
  call void @llvm.lifetime.end.p0(i64 8, ptr %6) #3
  call void @llvm.lifetime.end.p0(i64 8, ptr %5) #3
  ret void
}