; Function Attrs: mustprogress nofree norecurse nosync nounwind memory(readwrite, inaccessiblemem: none) uwtable
define hidden void @_ZNK2cv8ximgproc22DisparityWLSFilterImpl24ComputeDepthDisc_ParBodyclERKNS_5RangeE(ptr noundef nonnull readonly align 8 captures(none) dereferenceable(48) %0, ptr noundef nonnull readonly align 4 captures(none) dereferenceable(8) %1) unnamed_addr #14 align 2 {
  %3 = getelementptr inbounds nuw i8, ptr %0, i64 16
  %4 = load ptr, ptr %3, align 8, !tbaa !66
  %5 = getelementptr inbounds nuw i8, ptr %4, i64 8
  %6 = load i32, ptr %5, align 8, !tbaa !54
  %7 = getelementptr inbounds nuw i8, ptr %4, i64 12
  %8 = load i32, ptr %7, align 4, !tbaa !55
  %9 = load i32, ptr %1, align 4, !tbaa !45
  %10 = getelementptr inbounds nuw i8, ptr %0, i64 44
  %11 = load i32, ptr %10, align 4, !tbaa !70
  %12 = mul nsw i32 %11, %9
  %13 = getelementptr inbounds nuw i8, ptr %1, i64 4
  %14 = load i32, ptr %13, align 4, !tbaa !47
  %15 = mul nsw i32 %14, %11
  %.sroa.speculated26 = tail call i32 @llvm.smin.i32(i32 %6, i32 %15)
  %16 = icmp slt i32 %12, %.sroa.speculated26
  br i1 %16, label %.lr.ph40, label %._crit_edge41

.lr.ph40:                                         ; preds = %2
  %17 = getelementptr inbounds nuw i8, ptr %0, i64 8
  %18 = load ptr, ptr %17, align 8, !tbaa !62
  %19 = getelementptr inbounds nuw i8, ptr %18, i64 188
  %20 = load float, ptr %19, align 4, !tbaa !34
  %21 = fmul float %20, %20
  %22 = getelementptr inbounds nuw i8, ptr %18, i64 184
  %23 = load float, ptr %22, align 8, !tbaa !33
  %24 = getelementptr inbounds nuw i8, ptr %4, i64 16
  %25 = load ptr, ptr %24, align 8, !tbaa !150
  %26 = getelementptr inbounds nuw i8, ptr %4, i64 72
  %27 = load ptr, ptr %26, align 8, !tbaa !151
  %28 = load i64, ptr %27, align 8, !tbaa !152
  %29 = getelementptr inbounds nuw i8, ptr %0, i64 24
  %30 = load ptr, ptr %29, align 8, !tbaa !67
  %31 = getelementptr inbounds nuw i8, ptr %30, i64 16
  %32 = load ptr, ptr %31, align 8, !tbaa !150
  %33 = getelementptr inbounds nuw i8, ptr %30, i64 72
  %34 = load ptr, ptr %33, align 8, !tbaa !151
  %35 = load i64, ptr %34, align 8, !tbaa !152
  %36 = getelementptr inbounds nuw i8, ptr %0, i64 32
  %37 = load ptr, ptr %36, align 8, !tbaa !68
  %38 = getelementptr inbounds nuw i8, ptr %37, i64 16
  %39 = load ptr, ptr %38, align 8, !tbaa !150
  %40 = getelementptr inbounds nuw i8, ptr %37, i64 72
  %41 = load ptr, ptr %40, align 8, !tbaa !151
  %42 = load i64, ptr %41, align 8, !tbaa !152
  %43 = icmp sgt i32 %8, 0
  %44 = fneg float %23
  %45 = fdiv float %44, %21
  br i1 %43, label %.lr.ph.us.preheader, label %._crit_edge41

.lr.ph.us.preheader:                              ; preds = %.lr.ph40
  %.sroa.speculated30 = tail call i32 @llvm.smin.i32(i32 %6, i32 %12)
  %46 = tail call i32 @llvm.smin.i32(i32 %6, i32 %12)
  %smin = sext i32 %46 to i64
  %47 = add i32 %.sroa.speculated26, %46
  %48 = sub i32 %47, %.sroa.speculated30
  %wide.trip.count = zext nneg i32 %8 to i64
  br label %.lr.ph.us

.lr.ph.us:                                        ; preds = %.lr.ph.us.preheader, %._crit_edge.us
  %indvars.iv44 = phi i64 [ %smin, %.lr.ph.us.preheader ], [ %indvars.iv.next45, %._crit_edge.us ]
  %49 = mul i64 %28, %indvars.iv44
  %50 = getelementptr inbounds nuw i8, ptr %25, i64 %49
  %51 = mul i64 %35, %indvars.iv44
  %52 = getelementptr inbounds nuw i8, ptr %32, i64 %51
  %53 = mul i64 %42, %indvars.iv44
  %54 = getelementptr inbounds nuw i8, ptr %39, i64 %53
  br label %55

55:                                               ; preds = %.lr.ph.us, %55
  %indvars.iv = phi i64 [ 0, %.lr.ph.us ], [ %indvars.iv.next, %55 ]
  %56 = getelementptr inbounds nuw float, ptr %52, i64 %indvars.iv
  %57 = load float, ptr %56, align 4, !tbaa !157
  %58 = getelementptr inbounds nuw float, ptr %50, i64 %indvars.iv
  %59 = load float, ptr %58, align 4, !tbaa !157
  %60 = fneg float %59
  %61 = tail call float @llvm.fmuladd.f32(float %60, float %59, float %57)
  %62 = tail call float @llvm.fmuladd.f32(float %45, float %61, float 1.000000e+00)
  %63 = fcmp olt float %62, 0.000000e+00
  %.sroa.speculated.us = select i1 %63, float 0.000000e+00, float %62
  %64 = getelementptr inbounds nuw float, ptr %54, i64 %indvars.iv
  store float %.sroa.speculated.us, ptr %64, align 4, !tbaa !157
  %indvars.iv.next = add nuw nsw i64 %indvars.iv, 1
  %exitcond.not = icmp eq i64 %indvars.iv.next, %wide.trip.count
  br i1 %exitcond.not, label %._crit_edge.us, label %55, !llvm.loop !161

._crit_edge.us:                                   ; preds = %55
  %indvars.iv.next45 = add nsw i64 %indvars.iv44, 1
  %lftr.wideiv = trunc i64 %indvars.iv.next45 to i32
  %exitcond46.not = icmp eq i32 %48, %lftr.wideiv
  br i1 %exitcond46.not, label %._crit_edge41, label %.lr.ph.us, !llvm.loop !162

._crit_edge41:                                    ; preds = %._crit_edge.us, %.lr.ph40, %2
  ret void
}